
firmware.elf:     file format elf32-littleriscv

Sections:
Idx Name          Size      VMA       LMA       File off  Algn
  0 .init         00000048  80000000  80000000  00001000  2**2
                  CONTENTS, ALLOC, LOAD, READONLY, CODE
  1 .text         0000040c  80000048  80000048  00001048  2**2
                  CONTENTS, ALLOC, LOAD, READONLY, CODE
  2 .stack        00001000  80000460  80000460  00001454  2**4
                  ALLOC
  3 .comment      0000000f  00000000  00000000  00001454  2**0
                  CONTENTS, READONLY
  4 .riscv.attributes 00000037  00000000  00000000  00001463  2**0
                  CONTENTS, READONLY

Disassembly of section .init:

80000000 <_start>:
80000000:	00001117          	auipc	sp,0x1
80000004:	46010113          	addi	sp,sp,1120 # 80001460 <_stack_top>
80000008:	00000297          	auipc	t0,0x0
8000000c:	03828293          	addi	t0,t0,56 # 80000040 <trap_vector>
80000010:	30529073          	csrw	mtvec,t0
80000014:	00000517          	auipc	a0,0x0
80000018:	44050513          	addi	a0,a0,1088 # 80000454 <__bss_end>
8000001c:	00000597          	auipc	a1,0x0
80000020:	43858593          	addi	a1,a1,1080 # 80000454 <__bss_end>
80000024:	00b55863          	bge	a0,a1,80000034 <_start+0x34>
80000028:	00052023          	sw	zero,0(a0)
8000002c:	00450513          	addi	a0,a0,4
80000030:	ff5ff06f          	j	80000024 <_start+0x24>
80000034:	104000ef          	jal	80000138 <main>

80000038 <halt>:
80000038:	10500073          	wfi
8000003c:	ffdff06f          	j	80000038 <halt>

80000040 <trap_vector>:
80000040:	0040006f          	j	80000044 <trap_handler>

80000044 <trap_handler>:
80000044:	30200073          	mret

Disassembly of section .text:

80000048 <dtekv_delay>:
80000048:	ff010113          	addi	sp,sp,-16
8000004c:	00a12623          	sw	a0,12(sp)
80000050:	00c12783          	lw	a5,12(sp)
80000054:	fff78713          	addi	a4,a5,-1
80000058:	00e12623          	sw	a4,12(sp)
8000005c:	00078c63          	beqz	a5,80000074 <dtekv_delay+0x2c>
80000060:	00000013          	nop
80000064:	00c12783          	lw	a5,12(sp)
80000068:	fff78713          	addi	a4,a5,-1
8000006c:	00e12623          	sw	a4,12(sp)
80000070:	fe0798e3          	bnez	a5,80000060 <dtekv_delay+0x18>
80000074:	01010113          	addi	sp,sp,16
80000078:	00008067          	ret

8000007c <vga_putpx>:
8000007c:	27f00793          	li	a5,639
80000080:	02a7e663          	bltu	a5,a0,800000ac <vga_putpx+0x30>
80000084:	1df00793          	li	a5,479
80000088:	02b7e263          	bltu	a5,a1,800000ac <vga_putpx+0x30>
8000008c:	100007b7          	lui	a5,0x10000
80000090:	00a7a023          	sw	a0,0(a5) # 10000000 <_start-0x70000000>
80000094:	100006b7          	lui	a3,0x10000
80000098:	10000737          	lui	a4,0x10000
8000009c:	00b6a223          	sw	a1,4(a3) # 10000004 <_start-0x6ffffffc>
800000a0:	00c72423          	sw	a2,8(a4) # 10000008 <_start-0x6ffffff8>
800000a4:	00100713          	li	a4,1
800000a8:	00e7a623          	sw	a4,12(a5)
800000ac:	00008067          	ret

800000b0 <vga_clear>:
800000b0:	100005b7          	lui	a1,0x10000
800000b4:	10000637          	lui	a2,0x10000
800000b8:	100006b7          	lui	a3,0x10000
800000bc:	00000713          	li	a4,0
800000c0:	10000337          	lui	t1,0x10000
800000c4:	00458593          	addi	a1,a1,4 # 10000004 <_start-0x6ffffffc>
800000c8:	00860613          	addi	a2,a2,8 # 10000008 <_start-0x6ffffff8>
800000cc:	00c68693          	addi	a3,a3,12 # 1000000c <_start-0x6ffffff4>
800000d0:	00100893          	li	a7,1
800000d4:	28000813          	li	a6,640
800000d8:	1e000e13          	li	t3,480
800000dc:	00000793          	li	a5,0
800000e0:	00f32023          	sw	a5,0(t1) # 10000000 <_start-0x70000000>
800000e4:	00e5a023          	sw	a4,0(a1)
800000e8:	00a62023          	sw	a0,0(a2)
800000ec:	0116a023          	sw	a7,0(a3)
800000f0:	00178793          	addi	a5,a5,1
800000f4:	ff0796e3          	bne	a5,a6,800000e0 <vga_clear+0x30>
800000f8:	00170713          	addi	a4,a4,1
800000fc:	ffc710e3          	bne	a4,t3,800000dc <vga_clear+0x2c>
80000100:	00008067          	ret

80000104 <vga_wait_vblank>:
80000104:	10000737          	lui	a4,0x10000
80000108:	ff010113          	addi	sp,sp,-16
8000010c:	01070713          	addi	a4,a4,16 # 10000010 <_start-0x6ffffff0>
80000110:	00c12783          	lw	a5,12(sp)
80000114:	00072683          	lw	a3,0(a4)
80000118:	00072783          	lw	a5,0(a4)
8000011c:	00f12623          	sw	a5,12(sp)
80000120:	00c12783          	lw	a5,12(sp)
80000124:	00f6c7b3          	xor	a5,a3,a5
80000128:	0017f793          	andi	a5,a5,1
8000012c:	fe0786e3          	beqz	a5,80000118 <vga_wait_vblank+0x14>
80000130:	01010113          	addi	sp,sp,16
80000134:	00008067          	ret

80000138 <main>:
80000138:	fa010113          	addi	sp,sp,-96
8000013c:	00100793          	li	a5,1
80000140:	00f12623          	sw	a5,12(sp)
80000144:	00200793          	li	a5,2
80000148:	00f12823          	sw	a5,16(sp)
8000014c:	14000793          	li	a5,320
80000150:	00f12423          	sw	a5,8(sp)
80000154:	ffe00793          	li	a5,-2
80000158:	04812c23          	sw	s0,88(sp)
8000015c:	00f12c23          	sw	a5,24(sp)
80000160:	00010437          	lui	s0,0x10
80000164:	00200793          	li	a5,2
80000168:	03712e23          	sw	s7,60(sp)
8000016c:	03812c23          	sw	s8,56(sp)
80000170:	03912a23          	sw	s9,52(sp)
80000174:	04112e23          	sw	ra,92(sp)
80000178:	04912a23          	sw	s1,84(sp)
8000017c:	05212823          	sw	s2,80(sp)
80000180:	05312623          	sw	s3,76(sp)
80000184:	05412423          	sw	s4,72(sp)
80000188:	05512223          	sw	s5,68(sp)
8000018c:	05612023          	sw	s6,64(sp)
80000190:	03a12823          	sw	s10,48(sp)
80000194:	03b12623          	sw	s11,44(sp)
80000198:	0f000c93          	li	s9,240
8000019c:	0d200c13          	li	s8,210
800001a0:	00f12e23          	sw	a5,28(sp)
800001a4:	0d200b93          	li	s7,210
800001a8:	fff40413          	addi	s0,s0,-1 # ffff <_start-0x7fff0001>
800001ac:	f59ff0ef          	jal	80000104 <vga_wait_vblank>
800001b0:	00000513          	li	a0,0
800001b4:	efdff0ef          	jal	800000b0 <vga_clear>
800001b8:	01c12703          	lw	a4,28(sp)
800001bc:	1a200693          	li	a3,418
800001c0:	00eb8bb3          	add	s7,s7,a4
800001c4:	fffb8793          	addi	a5,s7,-1
800001c8:	00f6f663          	bgeu	a3,a5,800001d4 <main+0x9c>
800001cc:	40e007b3          	neg	a5,a4
800001d0:	00f12e23          	sw	a5,28(sp)
800001d4:	01812703          	lw	a4,24(sp)
800001d8:	1a200693          	li	a3,418
800001dc:	00ec0c33          	add	s8,s8,a4
800001e0:	fffc0793          	addi	a5,s8,-1
800001e4:	00f6f663          	bgeu	a3,a5,800001f0 <main+0xb8>
800001e8:	40e007b3          	neg	a5,a4
800001ec:	00f12c23          	sw	a5,24(sp)
800001f0:	00812683          	lw	a3,8(sp)
800001f4:	00c12703          	lw	a4,12(sp)
800001f8:	01012603          	lw	a2,16(sp)
800001fc:	00ec8cb3          	add	s9,s9,a4
80000200:	00c686b3          	add	a3,a3,a2
80000204:	00d12423          	sw	a3,8(sp)
80000208:	ffbc8793          	addi	a5,s9,-5
8000020c:	1d600693          	li	a3,470
80000210:	00f6f663          	bgeu	a3,a5,8000021c <main+0xe4>
80000214:	40e007b3          	neg	a5,a4
80000218:	00f12623          	sw	a5,12(sp)
8000021c:	00812703          	lw	a4,8(sp)
80000220:	03cc0793          	addi	a5,s8,60
80000224:	00f12a23          	sw	a5,20(sp)
80000228:	01400793          	li	a5,20
8000022c:	03cb8d93          	addi	s11,s7,60
80000230:	14e7d463          	bge	a5,a4,80000378 <main+0x240>
80000234:	26b00793          	li	a5,619
80000238:	1ae7d263          	bge	a5,a4,800003dc <main+0x2a4>
8000023c:	038cc063          	blt	s9,s8,8000025c <main+0x124>
80000240:	03cc0793          	addi	a5,s8,60
80000244:	0197cc63          	blt	a5,s9,8000025c <main+0x124>
80000248:	01012703          	lw	a4,16(sp)
8000024c:	41f75793          	srai	a5,a4,0x1f
80000250:	00e7c733          	xor	a4,a5,a4
80000254:	40e787b3          	sub	a5,a5,a4
80000258:	00f12823          	sw	a5,16(sp)
8000025c:	00812683          	lw	a3,8(sp)
80000260:	27f00793          	li	a5,639
80000264:	12d7fa63          	bgeu	a5,a3,80000398 <main+0x260>
80000268:	01012783          	lw	a5,16(sp)
8000026c:	41f7d793          	srai	a5,a5,0x1f
80000270:	0047f793          	andi	a5,a5,4
80000274:	ffe78793          	addi	a5,a5,-2
80000278:	00f12823          	sw	a5,16(sp)
8000027c:	00c12783          	lw	a5,12(sp)
80000280:	0f400b13          	li	s6,244
80000284:	14400993          	li	s3,324
80000288:	fff7c793          	not	a5,a5
8000028c:	41f7d793          	srai	a5,a5,0x1f
80000290:	0027f793          	andi	a5,a5,2
80000294:	fff78793          	addi	a5,a5,-1
80000298:	00f12623          	sw	a5,12(sp)
8000029c:	14000793          	li	a5,320
800002a0:	0ec00913          	li	s2,236
800002a4:	13c00a93          	li	s5,316
800002a8:	0f000c93          	li	s9,240
800002ac:	00f12423          	sw	a5,8(sp)
800002b0:	fffbc493          	not	s1,s7
800002b4:	41f4d493          	srai	s1,s1,0x1f
800002b8:	1e000793          	li	a5,480
800002bc:	009bf4b3          	and	s1,s7,s1
800002c0:	01b7d463          	bge	a5,s11,800002c8 <main+0x190>
800002c4:	1e000d93          	li	s11,480
800002c8:	01000a13          	li	s4,16
800002cc:	03b4d463          	bge	s1,s11,800002f4 <main+0x1bc>
800002d0:	00a00d13          	li	s10,10
800002d4:	000d0513          	mv	a0,s10
800002d8:	00040613          	mv	a2,s0
800002dc:	00048593          	mv	a1,s1
800002e0:	001d0d13          	addi	s10,s10,1
800002e4:	d99ff0ef          	jal	8000007c <vga_putpx>
800002e8:	ff4d16e3          	bne	s10,s4,800002d4 <main+0x19c>
800002ec:	00148493          	addi	s1,s1,1
800002f0:	fe9d90e3          	bne	s11,s1,800002d0 <main+0x198>
800002f4:	01412d83          	lw	s11,20(sp)
800002f8:	fffc4493          	not	s1,s8
800002fc:	41f4d493          	srai	s1,s1,0x1f
80000300:	1e000793          	li	a5,480
80000304:	009c74b3          	and	s1,s8,s1
80000308:	01b7d463          	bge	a5,s11,80000310 <main+0x1d8>
8000030c:	1e000d93          	li	s11,480
80000310:	27600a13          	li	s4,630
80000314:	03b4d463          	bge	s1,s11,8000033c <main+0x204>
80000318:	27000d13          	li	s10,624
8000031c:	000d0513          	mv	a0,s10
80000320:	00040613          	mv	a2,s0
80000324:	00048593          	mv	a1,s1
80000328:	001d0d13          	addi	s10,s10,1
8000032c:	d51ff0ef          	jal	8000007c <vga_putpx>
80000330:	ff4d16e3          	bne	s10,s4,8000031c <main+0x1e4>
80000334:	00148493          	addi	s1,s1,1
80000338:	fe9d90e3          	bne	s11,s1,80000318 <main+0x1e0>
8000033c:	03695663          	bge	s2,s6,80000368 <main+0x230>
80000340:	000a8493          	mv	s1,s5
80000344:	013ade63          	bge	s5,s3,80000360 <main+0x228>
80000348:	00048513          	mv	a0,s1
8000034c:	00040613          	mv	a2,s0
80000350:	00090593          	mv	a1,s2
80000354:	00148493          	addi	s1,s1,1
80000358:	d25ff0ef          	jal	8000007c <vga_putpx>
8000035c:	ff3496e3          	bne	s1,s3,80000348 <main+0x210>
80000360:	00190913          	addi	s2,s2,1
80000364:	fd691ee3          	bne	s2,s6,80000340 <main+0x208>
80000368:	00016537          	lui	a0,0x16
8000036c:	f9050513          	addi	a0,a0,-112 # 15f90 <_start-0x7ffea070>
80000370:	cd9ff0ef          	jal	80000048 <dtekv_delay>
80000374:	e39ff06f          	j	800001ac <main+0x74>
80000378:	ef7cc2e3          	blt	s9,s7,8000025c <main+0x124>
8000037c:	ef9dc0e3          	blt	s11,s9,8000025c <main+0x124>
80000380:	00812603          	lw	a2,8(sp)
80000384:	27f00793          	li	a5,639
80000388:	08c7f063          	bgeu	a5,a2,80000408 <main+0x2d0>
8000038c:	ffe00793          	li	a5,-2
80000390:	00f12823          	sw	a5,16(sp)
80000394:	ee9ff06f          	j	8000027c <main+0x144>
80000398:	ffc68a93          	addi	s5,a3,-4
8000039c:	ffcc8913          	addi	s2,s9,-4
800003a0:	fffac713          	not	a4,s5
800003a4:	fff94793          	not	a5,s2
800003a8:	41f75713          	srai	a4,a4,0x1f
800003ac:	41f7d793          	srai	a5,a5,0x1f
800003b0:	00468993          	addi	s3,a3,4
800003b4:	28000693          	li	a3,640
800003b8:	00eafab3          	and	s5,s5,a4
800003bc:	00f97933          	and	s2,s2,a5
800003c0:	0136d463          	bge	a3,s3,800003c8 <main+0x290>
800003c4:	28000993          	li	s3,640
800003c8:	004c8b13          	addi	s6,s9,4
800003cc:	1e000793          	li	a5,480
800003d0:	ef67d0e3          	bge	a5,s6,800002b0 <main+0x178>
800003d4:	1e000b13          	li	s6,480
800003d8:	ed9ff06f          	j	800002b0 <main+0x178>
800003dc:	ffcc8913          	addi	s2,s9,-4
800003e0:	fff94793          	not	a5,s2
800003e4:	41f7d793          	srai	a5,a5,0x1f
800003e8:	00f97933          	and	s2,s2,a5
800003ec:	004c8b13          	addi	s6,s9,4
800003f0:	1e000793          	li	a5,480
800003f4:	ffc70a93          	addi	s5,a4,-4
800003f8:	00470993          	addi	s3,a4,4
800003fc:	eb67dae3          	bge	a5,s6,800002b0 <main+0x178>
80000400:	1e000b13          	li	s6,480
80000404:	eadff06f          	j	800002b0 <main+0x178>
80000408:	01012583          	lw	a1,16(sp)
8000040c:	ffcc8913          	addi	s2,s9,-4
80000410:	ffc60a93          	addi	s5,a2,-4
80000414:	41f5d693          	srai	a3,a1,0x1f
80000418:	fff94793          	not	a5,s2
8000041c:	00d5c5b3          	xor	a1,a1,a3
80000420:	fffac713          	not	a4,s5
80000424:	41f7d793          	srai	a5,a5,0x1f
80000428:	40d586b3          	sub	a3,a1,a3
8000042c:	41f75713          	srai	a4,a4,0x1f
80000430:	00f97933          	and	s2,s2,a5
80000434:	004c8b13          	addi	s6,s9,4
80000438:	00d12823          	sw	a3,16(sp)
8000043c:	1e000793          	li	a5,480
80000440:	00460993          	addi	s3,a2,4
80000444:	00eafab3          	and	s5,s5,a4
80000448:	e767d4e3          	bge	a5,s6,800002b0 <main+0x178>
8000044c:	1e000b13          	li	s6,480
80000450:	e61ff06f          	j	800002b0 <main+0x178>
